target datalayout = "e-m:e-p270:32:32-p271:32:32-p272:64:64-i64:64-i128:128-f80:128-n8:16:32:64-S128"
target triple = "x86_64-pc-linux-gnu"

%struct.slurm_conf_t = type { i64, ptr, i16, ptr, ptr, ptr, ptr, ptr, i16, ptr, ptr, ptr, ptr, ptr, ptr, ptr, i16, ptr, ptr, ptr, ptr, i16, ptr, ptr, ptr, i64, ptr, ptr, ptr, ptr, i16, ptr, ptr, i16, i32, ptr, i32, ptr, i32, i32, ptr, ptr, i64, i64, ptr, i16, i16, ptr, i32, i32, ptr, i32, ptr, i32, i16, i16, i16, ptr, i16, i16, ptr, ptr, i32, i16, i16, ptr, i32, i16, ptr, ptr, ptr, ptr, i16, ptr, ptr, ptr, ptr, i32, ptr, ptr, ptr, ptr, i16, i16, ptr, i32, i32, i32, i16, i16, ptr, ptr, i16, ptr, ptr, i32, i32, i32, i32, i32, i64, i32, i32, i16, ptr, ptr, i32, ptr, ptr, ptr, i16, i32, ptr, ptr, i16, ptr, ptr, i32, i16, ptr, ptr, ptr, ptr, i32, i32, i16, i16, i32, ptr, i16, ptr, i32, i32, i32, i32, i32, i32, ptr, i16, ptr, ptr, i32, i16, ptr, i32, i16, i16, ptr, ptr, ptr, i16, ptr, ptr, ptr, ptr, i16, i16, ptr, i16, ptr, i16, ptr, i16, ptr, i16, ptr, ptr, ptr, ptr, i16, ptr, ptr, ptr, i32, ptr, i32, ptr, ptr, i16, ptr, ptr, i32, i16, ptr, ptr, i16, i16, ptr, i16, ptr, ptr, ptr, i32, ptr, i16, i16, ptr, ptr, ptr, ptr, ptr, ptr, ptr, ptr, i16, i32, i16, ptr, ptr, ptr, ptr, i32, ptr, ptr, ptr, i16, ptr, ptr, ptr, i16, ptr, i16, ptr, i16, i16, ptr }

@plugin_type = dso_local constant [22 x i8] c"node_features/helpers\00", align 16
@helper_features = internal global ptr null, align 8
@.str.3 = private unnamed_addr constant [2 x i8] c",\00", align 1
@slurm_conf = external global %struct.slurm_conf_t, align 8
@.str.7 = private unnamed_addr constant [40 x i8] c"%s: %s: NODE_FEATURES: new_features: %s\00", align 1
@__func__.node_features_p_node_xlate = private unnamed_addr constant [27 x i8] c"node_features_p_node_xlate\00", align 1
@.str.8 = private unnamed_addr constant [41 x i8] c"%s: %s: NODE_FEATURES: orig_features: %s\00", align 1
@.str.9 = private unnamed_addr constant [42 x i8] c"%s: %s: NODE_FEATURES: avail_features: %s\00", align 1
@.str.10 = private unnamed_addr constant [43 x i8] c"%s: %s: NODE_FEATURES: merged features: %s\00", align 1

; Function Attrs: nounwind uwtable
define dso_local zeroext i1 @node_features_p_changeable_feature(ptr noundef %0) #0 {
  %2 = alloca i1, align 1
  %3 = alloca ptr, align 8
  %4 = alloca ptr, align 8
  %5 = alloca i32, align 4
  store ptr %0, ptr %3, align 8
  call void @llvm.lifetime.start.p0(i64 8, ptr %4) #8
  store ptr null, ptr %4, align 8
  %6 = load ptr, ptr @helper_features, align 8
  %7 = load ptr, ptr %3, align 8
  %8 = call ptr @list_find_first(ptr noundef %6, ptr noundef @_cmp_features, ptr noundef %7)
  store ptr %8, ptr %4, align 8
  %9 = load ptr, ptr %4, align 8
  %10 = icmp ne ptr %9, null
  br i1 %10, label %12, label %11

11:                                               ; preds = %1
  store i1 false, ptr %2, align 1
  store i32 1, ptr %5, align 4
  br label %13

12:                                               ; preds = %1
  store i1 true, ptr %2, align 1
  store i32 1, ptr %5, align 4
  br label %13

13:                                               ; preds = %12, %11
  call void @llvm.lifetime.end.p0(i64 8, ptr %4) #8
  %14 = load i1, ptr %2, align 1
  ret i1 %14
}

; Function Attrs: nounwind uwtable
define dso_local ptr @node_features_p_node_xlate(ptr noundef %0, ptr noundef %1, ptr noundef %2, i32 noundef %3) #0 {
  %5 = alloca ptr, align 8
  %6 = alloca ptr, align 8
  %7 = alloca ptr, align 8
  %8 = alloca ptr, align 8
  %9 = alloca i32, align 4
  %10 = alloca ptr, align 8
  %11 = alloca ptr, align 8
  %12 = alloca ptr, align 8
  %13 = alloca ptr, align 8
  %14 = alloca ptr, align 8
  %15 = alloca i32, align 4
  store ptr %0, ptr %6, align 8
  store ptr %1, ptr %7, align 8
  store ptr %2, ptr %8, align 8
  store i32 %3, ptr %9, align 4
  call void @llvm.lifetime.start.p0(i64 8, ptr %10) #8
  store ptr null, ptr %10, align 8
  call void @llvm.lifetime.start.p0(i64 8, ptr %11) #8
  store ptr null, ptr %11, align 8
  call void @llvm.lifetime.start.p0(i64 8, ptr %12) #8
  store ptr null, ptr %12, align 8
  call void @llvm.lifetime.start.p0(i64 8, ptr %13) #8
  store ptr null, ptr %13, align 8
  call void @llvm.lifetime.start.p0(i64 8, ptr %14) #8
  store ptr null, ptr %14, align 8
  br label %16

16:                                               ; preds = %4
  %17 = load i64, ptr getelementptr inbounds nuw (%struct.slurm_conf_t, ptr @slurm_conf, i32 0, i32 42), align 8
  %18 = and i64 %17, 140737488355328
  %19 = icmp ne i64 %18, 0
  br i1 %19, label %20, label %29

20:                                               ; preds = %16
  br label %21

21:                                               ; preds = %20
  %22 = call i32 @get_log_level()
  %23 = icmp sge i32 %22, 4
  br i1 %23, label %24, label %26

24:                                               ; preds = %21
  %25 = load ptr, ptr %6, align 8
  call void (i32, ptr, ...) @log_var(i32 noundef 4, ptr noundef @.str.7, ptr noundef @plugin_type, ptr noundef @__func__.node_features_p_node_xlate, ptr noundef %25)
  br label %26

26:                                               ; preds = %24, %21
  br label %27

27:                                               ; preds = %26
  br label %28

28:                                               ; preds = %27
  br label %29

29:                                               ; preds = %28, %16
  br label %30

30:                                               ; preds = %29
  br label %31

31:                                               ; preds = %30
  br label %32

32:                                               ; preds = %31
  %33 = load i64, ptr getelementptr inbounds nuw (%struct.slurm_conf_t, ptr @slurm_conf, i32 0, i32 42), align 8
  %34 = and i64 %33, 140737488355328
  %35 = icmp ne i64 %34, 0
  br i1 %35, label %36, label %45

36:                                               ; preds = %32
  br label %37

37:                                               ; preds = %36
  %38 = call i32 @get_log_level()
  %39 = icmp sge i32 %38, 4
  br i1 %39, label %40, label %42

40:                                               ; preds = %37
  %41 = load ptr, ptr %7, align 8
  call void (i32, ptr, ...) @log_var(i32 noundef 4, ptr noundef @.str.8, ptr noundef @plugin_type, ptr noundef @__func__.node_features_p_node_xlate, ptr noundef %41)
  br label %42

42:                                               ; preds = %40, %37
  br label %43

43:                                               ; preds = %42
  br label %44

44:                                               ; preds = %43
  br label %45

45:                                               ; preds = %44, %32
  br label %46

46:                                               ; preds = %45
  br label %47

47:                                               ; preds = %46
  br label %48

48:                                               ; preds = %47
  %49 = load i64, ptr getelementptr inbounds nuw (%struct.slurm_conf_t, ptr @slurm_conf, i32 0, i32 42), align 8
  %50 = and i64 %49, 140737488355328
  %51 = icmp ne i64 %50, 0
  br i1 %51, label %52, label %61

52:                                               ; preds = %48
  br label %53

53:                                               ; preds = %52
  %54 = call i32 @get_log_level()
  %55 = icmp sge i32 %54, 4
  br i1 %55, label %56, label %58

56:                                               ; preds = %53
  %57 = load ptr, ptr %8, align 8
  call void (i32, ptr, ...) @log_var(i32 noundef 4, ptr noundef @.str.9, ptr noundef @plugin_type, ptr noundef @__func__.node_features_p_node_xlate, ptr noundef %57)
  br label %58

58:                                               ; preds = %56, %53
  br label %59

59:                                               ; preds = %58
  br label %60

60:                                               ; preds = %59
  br label %61

61:                                               ; preds = %60, %48
  br label %62

62:                                               ; preds = %61
  br label %63

63:                                               ; preds = %62
  %64 = load ptr, ptr %6, align 8
  %65 = icmp ne ptr %64, null
  br i1 %65, label %66, label %72

66:                                               ; preds = %63
  %67 = load ptr, ptr %6, align 8
  %68 = getelementptr inbounds i8, ptr %67, i64 0
  %69 = load i8, ptr %68, align 1
  %70 = sext i8 %69 to i32
  %71 = icmp eq i32 %70, 0
  br i1 %71, label %72, label %75

72:                                               ; preds = %66, %63
  %73 = load ptr, ptr %7, align 8
  %74 = call ptr @xstrdup(ptr noundef %73)
  store ptr %74, ptr %5, align 8
  store i32 1, ptr %15, align 4
  br label %154

75:                                               ; preds = %66
  %76 = load ptr, ptr %7, align 8
  %77 = icmp ne ptr %76, null
  br i1 %77, label %78, label %84

78:                                               ; preds = %75
  %79 = load ptr, ptr %7, align 8
  %80 = getelementptr inbounds i8, ptr %79, i64 0
  %81 = load i8, ptr %80, align 1
  %82 = sext i8 %81 to i32
  %83 = icmp eq i32 %82, 0
  br i1 %83, label %84, label %87

84:                                               ; preds = %78, %75
  %85 = load ptr, ptr %6, align 8
  %86 = call ptr @xstrdup(ptr noundef %85)
  store ptr %86, ptr %5, align 8
  store i32 1, ptr %15, align 4
  br label %154

87:                                               ; preds = %78
  %88 = call ptr @list_create(ptr noundef @xfree_ptr)
  store ptr %88, ptr %10, align 8
  %89 = load ptr, ptr %6, align 8
  %90 = call ptr @xstrdup(ptr noundef %89)
  store ptr %90, ptr %12, align 8
  %91 = load ptr, ptr %12, align 8
  %92 = call ptr @strtok_r(ptr noundef %91, ptr noundef @.str.3, ptr noundef %14) #8
  store ptr %92, ptr %11, align 8
  br label %93

93:                                               ; preds = %100, %87
  %94 = load ptr, ptr %11, align 8
  %95 = icmp ne ptr %94, null
  br i1 %95, label %96, label %102

96:                                               ; preds = %93
  %97 = load ptr, ptr %10, align 8
  %98 = load ptr, ptr %11, align 8
  %99 = call ptr @xstrdup(ptr noundef %98)
  call void @list_append(ptr noundef %97, ptr noundef %99)
  br label %100

100:                                              ; preds = %96
  %101 = call ptr @strtok_r(ptr noundef null, ptr noundef @.str.3, ptr noundef %14) #8
  store ptr %101, ptr %11, align 8
  br label %93, !llvm.loop !14

102:                                              ; preds = %93
  call void @slurm_xfree(ptr noundef %12)
  %103 = load ptr, ptr %7, align 8
  %104 = call ptr @xstrdup(ptr noundef %103)
  store ptr %104, ptr %12, align 8
  %105 = load ptr, ptr %12, align 8
  %106 = call ptr @strtok_r(ptr noundef %105, ptr noundef @.str.3, ptr noundef %14) #8
  store ptr %106, ptr %11, align 8
  br label %107

107:                                              ; preds = %124, %102
  %108 = load ptr, ptr %11, align 8
  %109 = icmp ne ptr %108, null
  br i1 %109, label %110, label %126

110:                                              ; preds = %107
  %111 = load ptr, ptr %11, align 8
  %112 = call zeroext i1 @node_features_p_changeable_feature(ptr noundef %111)
  br i1 %112, label %113, label %114

113:                                              ; preds = %110
  br label %124

114:                                              ; preds = %110
  %115 = load ptr, ptr %10, align 8
  %116 = load ptr, ptr %11, align 8
  %117 = call ptr @list_find_first(ptr noundef %115, ptr noundef @_cmp_str, ptr noundef %116)
  %118 = icmp ne ptr %117, null
  br i1 %118, label %119, label %120

119:                                              ; preds = %114
  br label %124

120:                                              ; preds = %114
  %121 = load ptr, ptr %10, align 8
  %122 = load ptr, ptr %11, align 8
  %123 = call ptr @xstrdup(ptr noundef %122)
  call void @list_append(ptr noundef %121, ptr noundef %123)
  br label %124

124:                                              ; preds = %120, %119, %113
  %125 = call ptr @strtok_r(ptr noundef null, ptr noundef @.str.3, ptr noundef %14) #8
  store ptr %125, ptr %11, align 8
  br label %107, !llvm.loop !15

126:                                              ; preds = %107
  call void @slurm_xfree(ptr noundef %12)
  %127 = load ptr, ptr %10, align 8
  %128 = call i32 @list_for_each(ptr noundef %127, ptr noundef @_list_make_str, ptr noundef %13)
  br label %129

129:                                              ; preds = %126
  %130 = load ptr, ptr %10, align 8
  %131 = icmp ne ptr %130, null
  br i1 %131, label %132, label %134

132:                                              ; preds = %129
  %133 = load ptr, ptr %10, align 8
  call void @list_destroy(ptr noundef %133)
  br label %134

134:                                              ; preds = %132, %129
  store ptr null, ptr %10, align 8
  br label %135

135:                                              ; preds = %134
  br label %136

136:                                              ; preds = %135
  br label %137

137:                                              ; preds = %136
  %138 = load i64, ptr getelementptr inbounds nuw (%struct.slurm_conf_t, ptr @slurm_conf, i32 0, i32 42), align 8
  %139 = and i64 %138, 140737488355328
  %140 = icmp ne i64 %139, 0
  br i1 %140, label %141, label %150

141:                                              ; preds = %137
  br label %142

142:                                              ; preds = %141
  %143 = call i32 @get_log_level()
  %144 = icmp sge i32 %143, 4
  br i1 %144, label %145, label %147

145:                                              ; preds = %142
  %146 = load ptr, ptr %13, align 8
  call void (i32, ptr, ...) @log_var(i32 noundef 4, ptr noundef @.str.10, ptr noundef @plugin_type, ptr noundef @__func__.node_features_p_node_xlate, ptr noundef %146)
  br label %147

147:                                              ; preds = %145, %142
  br label %148

148:                                              ; preds = %147
  br label %149

149:                                              ; preds = %148
  br label %150

150:                                              ; preds = %149, %137
  br label %151

151:                                              ; preds = %150
  br label %152

152:                                              ; preds = %151
  %153 = load ptr, ptr %13, align 8
  store ptr %153, ptr %5, align 8
  store i32 1, ptr %15, align 4
  br label %154

154:                                              ; preds = %152, %84, %72
  call void @llvm.lifetime.end.p0(i64 8, ptr %14) #8
  call void @llvm.lifetime.end.p0(i64 8, ptr %13) #8
  call void @llvm.lifetime.end.p0(i64 8, ptr %12) #8
  call void @llvm.lifetime.end.p0(i64 8, ptr %11) #8
  call void @llvm.lifetime.end.p0(i64 8, ptr %10) #8
  %155 = load ptr, ptr %5, align 8
  ret ptr %155
}