; Function Attrs: nounwind uwtable
define dso_local ptr @node_features_p_node_xlate(ptr noundef %0, ptr noundef %1, ptr noundef %2, i32 noundef %3) local_unnamed_addr #0 {
  %5 = alloca ptr, align 8
  %6 = alloca ptr, align 8
  %7 = alloca ptr, align 8
  call void @llvm.lifetime.start.p0(i64 8, ptr nonnull %5) #10
  store ptr null, ptr %5, align 8
  call void @llvm.lifetime.start.p0(i64 8, ptr nonnull %6) #10
  store ptr null, ptr %6, align 8
  call void @llvm.lifetime.start.p0(i64 8, ptr nonnull %7) #10
  store ptr null, ptr %7, align 8
  %8 = load i64, ptr getelementptr inbounds nuw (i8, ptr @slurm_conf, i64 320), align 8
  %9 = and i64 %8, 140737488355328
  %.not = icmp eq i64 %9, 0
  br i1 %.not, label %14, label %10

10:                                               ; preds = %4
  %11 = tail call i32 @get_log_level() #10
  %12 = icmp sgt i32 %11, 3
  br i1 %12, label %13, label %14

13:                                               ; preds = %10
  tail call void (i32, ptr, ...) @log_var(i32 noundef 4, ptr noundef nonnull @.str.7, ptr noundef nonnull @plugin_type, ptr noundef nonnull @__func__.node_features_p_node_xlate, ptr noundef %0) #10
  br label %14

14:                                               ; preds = %4, %13, %10
  %15 = load i64, ptr getelementptr inbounds nuw (i8, ptr @slurm_conf, i64 320), align 8
  %16 = and i64 %15, 140737488355328
  %.not28 = icmp eq i64 %16, 0
  br i1 %.not28, label %21, label %17

17:                                               ; preds = %14
  %18 = tail call i32 @get_log_level() #10
  %19 = icmp sgt i32 %18, 3
  br i1 %19, label %20, label %21

20:                                               ; preds = %17
  tail call void (i32, ptr, ...) @log_var(i32 noundef 4, ptr noundef nonnull @.str.8, ptr noundef nonnull @plugin_type, ptr noundef nonnull @__func__.node_features_p_node_xlate, ptr noundef %1) #10
  br label %21

21:                                               ; preds = %14, %20, %17
  %22 = load i64, ptr getelementptr inbounds nuw (i8, ptr @slurm_conf, i64 320), align 8
  %23 = and i64 %22, 140737488355328
  %.not29 = icmp eq i64 %23, 0
  br i1 %.not29, label %28, label %24

24:                                               ; preds = %21
  %25 = tail call i32 @get_log_level() #10
  %26 = icmp sgt i32 %25, 3
  br i1 %26, label %27, label %28

27:                                               ; preds = %24
  tail call void (i32, ptr, ...) @log_var(i32 noundef 4, ptr noundef nonnull @.str.9, ptr noundef nonnull @plugin_type, ptr noundef nonnull @__func__.node_features_p_node_xlate, ptr noundef %2) #10
  br label %28

28:                                               ; preds = %24, %27, %21
  %.not30 = icmp eq ptr %0, null
  br i1 %.not30, label %32, label %29

29:                                               ; preds = %28
  %30 = load i8, ptr %0, align 1
  %31 = icmp eq i8 %30, 0
  br i1 %31, label %32, label %34

32:                                               ; preds = %29, %28
  %33 = tail call ptr @xstrdup(ptr noundef %1) #10
  br label %68

34:                                               ; preds = %29
  %.not31 = icmp eq ptr %1, null
  br i1 %.not31, label %38, label %35

35:                                               ; preds = %34
  %36 = load i8, ptr %1, align 1
  %37 = icmp eq i8 %36, 0
  br i1 %37, label %38, label %40

38:                                               ; preds = %35, %34
  %39 = tail call ptr @xstrdup(ptr noundef nonnull %0) #10
  br label %68

40:                                               ; preds = %35
  %41 = tail call ptr @list_create(ptr noundef nonnull @xfree_ptr) #10
  %42 = tail call ptr @xstrdup(ptr noundef nonnull %0) #10
  store ptr %42, ptr %5, align 8
  %43 = call ptr @strtok_r(ptr noundef %42, ptr noundef nonnull @.str.3, ptr noundef nonnull %7) #10
  %.not3237 = icmp eq ptr %43, null
  br i1 %.not3237, label %._crit_edge, label %.lr.ph

.lr.ph:                                           ; preds = %40, %.lr.ph
  %.038 = phi ptr [ %45, %.lr.ph ], [ %43, %40 ]
  %44 = call ptr @xstrdup(ptr noundef nonnull %.038) #10
  call void @list_append(ptr noundef %41, ptr noundef %44) #10
  %45 = call ptr @strtok_r(ptr noundef null, ptr noundef nonnull @.str.3, ptr noundef nonnull %7) #10
  %.not32 = icmp eq ptr %45, null
  br i1 %.not32, label %._crit_edge, label %.lr.ph, !llvm.loop !16

._crit_edge:                                      ; preds = %.lr.ph, %40
  call void @slurm_xfree(ptr noundef nonnull %5) #10
  %46 = call ptr @xstrdup(ptr noundef nonnull %1) #10
  store ptr %46, ptr %5, align 8
  %47 = call ptr @strtok_r(ptr noundef %46, ptr noundef nonnull @.str.3, ptr noundef nonnull %7) #10
  %.not3339 = icmp eq ptr %47, null
  br i1 %.not3339, label %._crit_edge43, label %.lr.ph42

.lr.ph42:                                         ; preds = %._crit_edge, %54
  %.140 = phi ptr [ %55, %54 ], [ %47, %._crit_edge ]
  %48 = load ptr, ptr @helper_features, align 8
  %49 = call ptr @list_find_first(ptr noundef %48, ptr noundef nonnull @_cmp_features, ptr noundef nonnull %.140) #10
  %.not.i.not = icmp eq ptr %49, null
  br i1 %.not.i.not, label %50, label %54

50:                                               ; preds = %.lr.ph42
  %51 = call ptr @list_find_first(ptr noundef %41, ptr noundef nonnull @_cmp_str, ptr noundef nonnull %.140) #10
  %.not36 = icmp eq ptr %51, null
  br i1 %.not36, label %52, label %54

52:                                               ; preds = %50
  %53 = call ptr @xstrdup(ptr noundef nonnull %.140) #10
  call void @list_append(ptr noundef %41, ptr noundef %53) #10
  br label %54

54:                                               ; preds = %50, %.lr.ph42, %52
  %55 = call ptr @strtok_r(ptr noundef null, ptr noundef nonnull @.str.3, ptr noundef nonnull %7) #10
  %.not33 = icmp eq ptr %55, null
  br i1 %.not33, label %._crit_edge43, label %.lr.ph42, !llvm.loop !17

._crit_edge43:                                    ; preds = %54, %._crit_edge
  call void @slurm_xfree(ptr noundef nonnull %5) #10
  %56 = call i32 @list_for_each(ptr noundef %41, ptr noundef nonnull @_list_make_str, ptr noundef nonnull %6) #10
  %.not34 = icmp eq ptr %41, null
  br i1 %.not34, label %58, label %57

57:                                               ; preds = %._crit_edge43
  call void @list_destroy(ptr noundef nonnull %41) #10
  br label %58

58:                                               ; preds = %57, %._crit_edge43
  %59 = load i64, ptr getelementptr inbounds nuw (i8, ptr @slurm_conf, i64 320), align 8
  %60 = and i64 %59, 140737488355328
  %.not35 = icmp eq i64 %60, 0
  br i1 %.not35, label %66, label %61

61:                                               ; preds = %58
  %62 = call i32 @get_log_level() #10
  %63 = icmp sgt i32 %62, 3
  br i1 %63, label %64, label %66

64:                                               ; preds = %61
  %65 = load ptr, ptr %6, align 8
  call void (i32, ptr, ...) @log_var(i32 noundef 4, ptr noundef nonnull @.str.10, ptr noundef nonnull @plugin_type, ptr noundef nonnull @__func__.node_features_p_node_xlate, ptr noundef %65) #10
  br label %66

66:                                               ; preds = %61, %64, %58
  %67 = load ptr, ptr %6, align 8
  br label %68

68:                                               ; preds = %66, %38, %32
  %.024 = phi ptr [ %33, %32 ], [ %39, %38 ], [ %67, %66 ]
  call void @llvm.lifetime.end.p0(i64 8, ptr nonnull %7) #10
  call void @llvm.lifetime.end.p0(i64 8, ptr nonnull %6) #10
  call void @llvm.lifetime.end.p0(i64 8, ptr nonnull %5) #10
  ret ptr %.024
}